target datalayout = "e-m:e-p270:32:32-p271:32:32-p272:64:64-i64:64-i128:128-f80:128-n8:16:32:64-S128"
target triple = "x86_64-pc-linux-gnu"

%union.pthread_mutex_t = type { %struct.__pthread_mutex_s }
%struct.__pthread_mutex_s = type { i32, i32, i32, i32, i32, i16, i16, %struct.__pthread_internal_list }
%struct.__pthread_internal_list = type { ptr, ptr }
%struct.anon = type { i64, ptr, i32, [40 x i8] }
%struct.release_t = type { ptr, ptr, i64 }
%struct.newmemstruct = type { i64, ptr, i32, [40 x i8] }

@alloc_lock = internal global %union.pthread_mutex_t zeroinitializer, align 8
@memory = internal global [50 x %struct.anon] zeroinitializer, align 16
@memory_overflowed = internal global i32 0, align 4
@newmemory = internal global ptr null, align 8
@base_address = internal global i64 0, align 8
@new_release_info = internal global ptr null, align 8
@release_pos = internal global i32 0, align 4
@release_info = internal global [50 x %struct.release_t] zeroinitializer, align 16

; Function Attrs: nounwind uwtable
define void @blas_shutdown() #0 {
  %1 = alloca i32, align 4
  call void @llvm.lifetime.start.p0(i64 4, ptr %1) #9
  %2 = call i32 @blas_thread_shutdown_()
  %3 = call i32 @pthread_mutex_lock(ptr noundef @alloc_lock) #9
  store i32 0, ptr %1, align 4, !tbaa !3
  br label %4

4:                                                ; preds = %40, %0
  %5 = load i32, ptr %1, align 4, !tbaa !3
  %6 = load i32, ptr @release_pos, align 4, !tbaa !3
  %7 = icmp slt i32 %5, %6
  br i1 %7, label %8, label %43

8:                                                ; preds = %4
  %9 = load i32, ptr %1, align 4, !tbaa !3
  %10 = icmp slt i32 %9, 50
  %11 = xor i1 %10, true
  %12 = xor i1 %11, true
  %13 = zext i1 %12 to i32
  %14 = sext i32 %13 to i64
  %15 = call i64 @llvm.expect.i64(i64 %14, i64 1)
  %16 = icmp ne i64 %15, 0
  br i1 %16, label %17, label %26

17:                                               ; preds = %8
  %18 = load i32, ptr %1, align 4, !tbaa !3
  %19 = sext i32 %18 to i64
  %20 = getelementptr inbounds [50 x %struct.release_t], ptr @release_info, i64 0, i64 %19
  %21 = getelementptr inbounds nuw %struct.release_t, ptr %20, i32 0, i32 1
  %22 = load ptr, ptr %21, align 8, !tbaa !36
  %23 = load i32, ptr %1, align 4, !tbaa !3
  %24 = sext i32 %23 to i64
  %25 = getelementptr inbounds [50 x %struct.release_t], ptr @release_info, i64 0, i64 %24
  call void %22(ptr noundef %25)
  br label %39

26:                                               ; preds = %8
  %27 = load ptr, ptr @new_release_info, align 8, !tbaa !27
  %28 = load i32, ptr %1, align 4, !tbaa !3
  %29 = sub nsw i32 %28, 50
  %30 = sext i32 %29 to i64
  %31 = getelementptr inbounds %struct.release_t, ptr %27, i64 %30
  %32 = getelementptr inbounds nuw %struct.release_t, ptr %31, i32 0, i32 1
  %33 = load ptr, ptr %32, align 8, !tbaa !36
  %34 = load ptr, ptr @new_release_info, align 8, !tbaa !27
  %35 = load i32, ptr %1, align 4, !tbaa !3
  %36 = sub nsw i32 %35, 50
  %37 = sext i32 %36 to i64
  %38 = getelementptr inbounds %struct.release_t, ptr %34, i64 %37
  call void %33(ptr noundef %38)
  br label %39

39:                                               ; preds = %26, %17
  br label %40

40:                                               ; preds = %39
  %41 = load i32, ptr %1, align 4, !tbaa !3
  %42 = add nsw i32 %41, 1
  store i32 %42, ptr %1, align 4, !tbaa !3
  br label %4, !llvm.loop !41

43:                                               ; preds = %4
  store i64 0, ptr @base_address, align 8, !tbaa !9
  store i32 0, ptr %1, align 4, !tbaa !3
  br label %44

44:                                               ; preds = %60, %43
  %45 = load i32, ptr %1, align 4, !tbaa !3
  %46 = icmp slt i32 %45, 50
  br i1 %46, label %47, label %63

47:                                               ; preds = %44
  %48 = load i32, ptr %1, align 4, !tbaa !3
  %49 = sext i32 %48 to i64
  %50 = getelementptr inbounds [50 x %struct.anon], ptr @memory, i64 0, i64 %49
  %51 = getelementptr inbounds nuw %struct.anon, ptr %50, i32 0, i32 1
  store volatile ptr null, ptr %51, align 8, !tbaa !21
  %52 = load i32, ptr %1, align 4, !tbaa !3
  %53 = sext i32 %52 to i64
  %54 = getelementptr inbounds [50 x %struct.anon], ptr @memory, i64 0, i64 %53
  %55 = getelementptr inbounds nuw %struct.anon, ptr %54, i32 0, i32 2
  store volatile i32 0, ptr %55, align 16, !tbaa !12
  %56 = load i32, ptr %1, align 4, !tbaa !3
  %57 = sext i32 %56 to i64
  %58 = getelementptr inbounds [50 x %struct.anon], ptr @memory, i64 0, i64 %57
  %59 = getelementptr inbounds nuw %struct.anon, ptr %58, i32 0, i32 0
  store volatile i64 0, ptr %59, align 16, !tbaa !42
  br label %60

60:                                               ; preds = %47
  %61 = load i32, ptr %1, align 4, !tbaa !3
  %62 = add nsw i32 %61, 1
  store i32 %62, ptr %1, align 4, !tbaa !3
  br label %44, !llvm.loop !43

63:                                               ; preds = %44
  %64 = load i32, ptr @memory_overflowed, align 4, !tbaa !3
  %65 = icmp ne i32 %64, 0
  br i1 %65, label %66, label %91

66:                                               ; preds = %63
  store i32 0, ptr %1, align 4, !tbaa !3
  br label %67

67:                                               ; preds = %86, %66
  %68 = load i32, ptr %1, align 4, !tbaa !3
  %69 = icmp slt i32 %68, 512
  br i1 %69, label %70, label %89

70:                                               ; preds = %67
  %71 = load ptr, ptr @newmemory, align 8, !tbaa !16
  %72 = load i32, ptr %1, align 4, !tbaa !3
  %73 = sext i32 %72 to i64
  %74 = getelementptr inbounds %struct.newmemstruct, ptr %71, i64 %73
  %75 = getelementptr inbounds nuw %struct.newmemstruct, ptr %74, i32 0, i32 1
  store volatile ptr null, ptr %75, align 8, !tbaa !29
  %76 = load ptr, ptr @newmemory, align 8, !tbaa !16
  %77 = load i32, ptr %1, align 4, !tbaa !3
  %78 = sext i32 %77 to i64
  %79 = getelementptr inbounds %struct.newmemstruct, ptr %76, i64 %78
  %80 = getelementptr inbounds nuw %struct.newmemstruct, ptr %79, i32 0, i32 2
  store volatile i32 0, ptr %80, align 8, !tbaa !18
  %81 = load ptr, ptr @newmemory, align 8, !tbaa !16
  %82 = load i32, ptr %1, align 4, !tbaa !3
  %83 = sext i32 %82 to i64
  %84 = getelementptr inbounds %struct.newmemstruct, ptr %81, i64 %83
  %85 = getelementptr inbounds nuw %struct.newmemstruct, ptr %84, i32 0, i32 0
  store volatile i64 0, ptr %85, align 8, !tbaa !30
  br label %86

86:                                               ; preds = %70
  %87 = load i32, ptr %1, align 4, !tbaa !3
  %88 = add nsw i32 %87, 1
  store i32 %88, ptr %1, align 4, !tbaa !3
  br label %67, !llvm.loop !44

89:                                               ; preds = %67
  %90 = load ptr, ptr @newmemory, align 8, !tbaa !16
  call void @free(ptr noundef %90) #9
  store ptr null, ptr @newmemory, align 8, !tbaa !16
  store i32 0, ptr @memory_overflowed, align 4, !tbaa !3
  br label %91

91:                                               ; preds = %89, %63
  %92 = call i32 @pthread_mutex_unlock(ptr noundef @alloc_lock) #9
  call void @llvm.lifetime.end.p0(i64 4, ptr %1) #9
  ret void
}