; Function Attrs: nounwind uwtable
define void @blas_shutdown() local_unnamed_addr #0 {
  %1 = tail call i32 @blas_thread_shutdown_() #15
  %2 = tail call i32 @pthread_mutex_lock(ptr noundef nonnull @alloc_lock) #15
  %3 = load i32, ptr @release_pos, align 4, !tbaa !3
  %4 = icmp sgt i32 %3, 0
  br i1 %4, label %.lr.ph, label %.preheader17.preheader

.lr.ph:                                           ; preds = %0, %16
  %indvars.iv = phi i64 [ %indvars.iv.next, %16 ], [ 0, %0 ]
  %5 = icmp samesign ult i64 %indvars.iv, 50
  br i1 %5, label %6, label %10, !prof !31

6:                                                ; preds = %.lr.ph
  %7 = getelementptr inbounds nuw [50 x %struct.release_t], ptr @release_info, i64 0, i64 %indvars.iv
  %8 = getelementptr inbounds nuw i8, ptr %7, i64 8
  %9 = load ptr, ptr %8, align 8, !tbaa !34
  tail call void %9(ptr noundef nonnull %7) #15
  br label %16

10:                                               ; preds = %.lr.ph
  %11 = load ptr, ptr @new_release_info, align 8, !tbaa !25
  %12 = getelementptr %struct.release_t, ptr %11, i64 %indvars.iv
  %13 = getelementptr i8, ptr %12, i64 -1200
  %14 = getelementptr i8, ptr %12, i64 -1192
  %15 = load ptr, ptr %14, align 8, !tbaa !34
  tail call void %15(ptr noundef %13) #15
  br label %16

16:                                               ; preds = %6, %10
  %indvars.iv.next = add nuw nsw i64 %indvars.iv, 1
  %17 = load i32, ptr @release_pos, align 4, !tbaa !3
  %18 = sext i32 %17 to i64
  %19 = icmp slt i64 %indvars.iv.next, %18
  br i1 %19, label %.lr.ph, label %.preheader17.preheader, !llvm.loop !39

.preheader17.preheader:                           ; preds = %16, %0
  br label %.preheader17

.preheader17:                                     ; preds = %.preheader17.preheader, %.preheader17
  %indvars.iv22 = phi i64 [ %indvars.iv.next23, %.preheader17 ], [ 0, %.preheader17.preheader ]
  %20 = getelementptr inbounds nuw [50 x %struct.anon], ptr @memory, i64 0, i64 %indvars.iv22
  %21 = getelementptr inbounds nuw i8, ptr %20, i64 8
  store volatile ptr null, ptr %21, align 8, !tbaa !19
  %22 = getelementptr inbounds nuw i8, ptr %20, i64 16
  store volatile i32 0, ptr %22, align 16, !tbaa !8
  store volatile i64 0, ptr %20, align 16, !tbaa !40
  %indvars.iv.next23 = add nuw nsw i64 %indvars.iv22, 1
  %exitcond.not = icmp eq i64 %indvars.iv.next23, 50
  br i1 %exitcond.not, label %23, label %.preheader17, !llvm.loop !41

23:                                               ; preds = %.preheader17
  %.b = load i1, ptr @memory_overflowed, align 4
  br i1 %.b, label %.preheader, label %30

.preheader:                                       ; preds = %23
  %24 = load ptr, ptr @newmemory, align 8, !tbaa !14
  br label %25

25:                                               ; preds = %.preheader, %25
  %indvars.iv25 = phi i64 [ 0, %.preheader ], [ %indvars.iv.next26, %25 ]
  %26 = getelementptr inbounds nuw %struct.newmemstruct, ptr %24, i64 %indvars.iv25, i32 1
  store volatile ptr null, ptr %26, align 8, !tbaa !27
  %27 = getelementptr inbounds nuw %struct.newmemstruct, ptr %24, i64 %indvars.iv25, i32 2
  store volatile i32 0, ptr %27, align 8, !tbaa !16
  %28 = getelementptr inbounds nuw %struct.newmemstruct, ptr %24, i64 %indvars.iv25
  store volatile i64 0, ptr %28, align 8, !tbaa !28
  %indvars.iv.next26 = add nuw nsw i64 %indvars.iv25, 1
  %exitcond28.not = icmp eq i64 %indvars.iv.next26, 512
  br i1 %exitcond28.not, label %29, label %25, !llvm.loop !42

29:                                               ; preds = %25
  tail call void @free(ptr noundef nonnull %24) #15
  store ptr null, ptr @newmemory, align 8, !tbaa !14
  store i1 false, ptr @memory_overflowed, align 4
  br label %30

30:                                               ; preds = %29, %23
  %31 = tail call i32 @pthread_mutex_unlock(ptr noundef nonnull @alloc_lock) #15
  ret void
}